target datalayout = "e-m:e-p270:32:32-p271:32:32-p272:64:64-i64:64-i128:128-f80:128-n8:16:32:64-S128"
target triple = "x86_64-pc-linux-gnu"

%"class.cv::utils::trace::details::Region" = type <{ ptr, i32, [4 x i8] }>
%"class.cv::Range" = type { i32, i32 }
%"class.cv::ParallelLoopBody" = type { ptr }
%"struct.cv::hal::cpu_baseline::(anonymous namespace)::RGB5x52RGB" = type { i32, i32, i32 }
%"class.cv::impl::(anonymous namespace)::CvtColorLoop_Invoker.17" = type { %"class.cv::ParallelLoopBody", ptr, i64, ptr, i64, i32, ptr }

; Function Attrs: mustprogress nounwind uwtable
define linkonce_odr hidden void @_ZN2cv5utils5trace7details6RegionD2Ev(ptr noundef nonnull align 8 dereferenceable(12) %0) unnamed_addr #2 comdat align 2 personality ptr @__gxx_personality_v0 {
  %2 = alloca ptr, align 8
  store ptr %0, ptr %2, align 8
  %3 = load ptr, ptr %2, align 8
  %4 = getelementptr inbounds %"class.cv::utils::trace::details::Region", ptr %3, i32 0, i32 1
  %5 = load i32, ptr %4, align 8
  %6 = icmp ne i32 %5, 0
  br i1 %6, label %7, label %9

7:                                                ; preds = %1
  invoke void @_ZN2cv5utils5trace7details6Region7destroyEv(ptr noundef nonnull align 8 dereferenceable(12) %3)
          to label %8 unwind label %10

8:                                                ; preds = %7
  br label %9

9:                                                ; preds = %8, %1
  ret void

10:                                               ; preds = %7
  %11 = landingpad { ptr, i32 }
          catch ptr null
  %12 = extractvalue { ptr, i32 } %11, 0
  call void @__clang_call_terminate(ptr %12) #12
  unreachable
}

; Function Attrs: mustprogress nounwind uwtable
define internal void @_ZNK2cv3hal12cpu_baseline12_GLOBAL__N_110RGB5x52RGBclEPKhPhi(ptr noundef nonnull align 4 dereferenceable(12) %0, ptr noundef %1, ptr noundef %2, i32 noundef %3) #2 align 2 {
  %5 = alloca ptr, align 8
  %6 = alloca ptr, align 8
  %7 = alloca ptr, align 8
  %8 = alloca i32, align 4
  %9 = alloca i32, align 4
  %10 = alloca i32, align 4
  %11 = alloca i32, align 4
  %12 = alloca i32, align 4
  %13 = alloca i32, align 4
  %14 = alloca i8, align 1
  %15 = alloca i8, align 1
  %16 = alloca i8, align 1
  %17 = alloca i8, align 1
  store ptr %0, ptr %5, align 8
  store ptr %1, ptr %6, align 8
  store ptr %2, ptr %7, align 8
  store i32 %3, ptr %8, align 4
  %18 = load ptr, ptr %5, align 8
  %19 = getelementptr inbounds %"struct.cv::hal::cpu_baseline::(anonymous namespace)::RGB5x52RGB", ptr %18, i32 0, i32 0
  %20 = load i32, ptr %19, align 4
  store i32 %20, ptr %9, align 4
  %21 = getelementptr inbounds %"struct.cv::hal::cpu_baseline::(anonymous namespace)::RGB5x52RGB", ptr %18, i32 0, i32 1
  %22 = load i32, ptr %21, align 4
  store i32 %22, ptr %10, align 4
  %23 = getelementptr inbounds %"struct.cv::hal::cpu_baseline::(anonymous namespace)::RGB5x52RGB", ptr %18, i32 0, i32 2
  %24 = load i32, ptr %23, align 4
  store i32 %24, ptr %11, align 4
  store i32 0, ptr %12, align 4
  br label %25

25:                                               ; preds = %84, %4
  %26 = load i32, ptr %12, align 4
  %27 = load i32, ptr %8, align 4
  %28 = icmp slt i32 %26, %27
  br i1 %28, label %29, label %93

29:                                               ; preds = %25
  %30 = load ptr, ptr %6, align 8
  %31 = getelementptr inbounds i16, ptr %30, i64 0
  %32 = load i16, ptr %31, align 2
  %33 = zext i16 %32 to i32
  store i32 %33, ptr %13, align 4
  %34 = load i32, ptr %13, align 4
  %35 = shl i32 %34, 3
  %36 = trunc i32 %35 to i8
  store i8 %36, ptr %14, align 1
  %37 = load i32, ptr %11, align 4
  %38 = icmp eq i32 %37, 6
  br i1 %38, label %39, label %48

39:                                               ; preds = %29
  %40 = load i32, ptr %13, align 4
  %41 = lshr i32 %40, 3
  %42 = and i32 %41, -4
  %43 = trunc i32 %42 to i8
  store i8 %43, ptr %15, align 1
  %44 = load i32, ptr %13, align 4
  %45 = lshr i32 %44, 8
  %46 = and i32 %45, -8
  %47 = trunc i32 %46 to i8
  store i8 %47, ptr %16, align 1
  store i8 -1, ptr %17, align 1
  br label %62

48:                                               ; preds = %29
  %49 = load i32, ptr %13, align 4
  %50 = lshr i32 %49, 2
  %51 = and i32 %50, -8
  %52 = trunc i32 %51 to i8
  store i8 %52, ptr %15, align 1
  %53 = load i32, ptr %13, align 4
  %54 = lshr i32 %53, 7
  %55 = and i32 %54, -8
  %56 = trunc i32 %55 to i8
  store i8 %56, ptr %16, align 1
  %57 = load i32, ptr %13, align 4
  %58 = and i32 %57, 32768
  %59 = lshr i32 %58, 15
  %60 = mul i32 %59, 255
  %61 = trunc i32 %60 to i8
  store i8 %61, ptr %17, align 1
  br label %62

62:                                               ; preds = %48, %39
  %63 = load i8, ptr %14, align 1
  %64 = load ptr, ptr %7, align 8
  %65 = load i32, ptr %10, align 4
  %66 = sext i32 %65 to i64
  %67 = getelementptr inbounds i8, ptr %64, i64 %66
  store i8 %63, ptr %67, align 1
  %68 = load i8, ptr %15, align 1
  %69 = load ptr, ptr %7, align 8
  %70 = getelementptr inbounds i8, ptr %69, i64 1
  store i8 %68, ptr %70, align 1
  %71 = load i8, ptr %16, align 1
  %72 = load ptr, ptr %7, align 8
  %73 = load i32, ptr %10, align 4
  %74 = xor i32 %73, 2
  %75 = sext i32 %74 to i64
  %76 = getelementptr inbounds i8, ptr %72, i64 %75
  store i8 %71, ptr %76, align 1
  %77 = load i32, ptr %9, align 4
  %78 = icmp eq i32 %77, 4
  br i1 %78, label %79, label %83

79:                                               ; preds = %62
  %80 = load i8, ptr %17, align 1
  %81 = load ptr, ptr %7, align 8
  %82 = getelementptr inbounds i8, ptr %81, i64 3
  store i8 %80, ptr %82, align 1
  br label %83

83:                                               ; preds = %79, %62
  br label %84

84:                                               ; preds = %83
  %85 = load i32, ptr %12, align 4
  %86 = add nsw i32 %85, 1
  store i32 %86, ptr %12, align 4
  %87 = load ptr, ptr %6, align 8
  %88 = getelementptr inbounds i8, ptr %87, i64 2
  store ptr %88, ptr %6, align 8
  %89 = load i32, ptr %9, align 4
  %90 = load ptr, ptr %7, align 8
  %91 = sext i32 %89 to i64
  %92 = getelementptr inbounds i8, ptr %90, i64 %91
  store ptr %92, ptr %7, align 8
  br label %25, !llvm.loop !17

93:                                               ; preds = %25
  ret void
}

; Function Attrs: mustprogress uwtable
define internal void @_ZNK2cv4impl12_GLOBAL__N_120CvtColorLoop_InvokerINS_3hal12cpu_baseline12_GLOBAL__N_110RGB5x52RGBEEclERKNS_5RangeE(ptr noundef nonnull align 8 dereferenceable(56) %0, ptr noundef nonnull align 4 dereferenceable(8) %1) unnamed_addr #0 align 2 personality ptr @__gxx_personality_v0 {
  %3 = alloca ptr, align 8
  %4 = alloca ptr, align 8
  %5 = alloca %"class.cv::utils::trace::details::Region", align 8
  %6 = alloca ptr, align 8
  %7 = alloca ptr, align 8
  %8 = alloca i32, align 4
  %9 = alloca ptr, align 8
  %10 = alloca i32, align 4
  store ptr %0, ptr %3, align 8
  store ptr %1, ptr %4, align 8
  %11 = load ptr, ptr %3, align 8
  call void @_ZN2cv5utils5trace7details6RegionC1ERKNS3_21LocationStaticStorageE(ptr noundef nonnull align 8 dereferenceable(12) %5, ptr noundef nonnull align 8 dereferenceable(32) @_ZZNK2cv4impl12_GLOBAL__N_120CvtColorLoop_InvokerINS_3hal12cpu_baseline12_GLOBAL__N_110RGB5x52RGBEEclERKNS_5RangeEE25__cv_trace_location_fn146)
  %12 = getelementptr inbounds %"class.cv::impl::(anonymous namespace)::CvtColorLoop_Invoker.17", ptr %11, i32 0, i32 1
  %13 = load ptr, ptr %12, align 8
  %14 = load ptr, ptr %4, align 8
  %15 = getelementptr inbounds %"class.cv::Range", ptr %14, i32 0, i32 0
  %16 = load i32, ptr %15, align 4
  %17 = sext i32 %16 to i64
  %18 = getelementptr inbounds %"class.cv::impl::(anonymous namespace)::CvtColorLoop_Invoker.17", ptr %11, i32 0, i32 2
  %19 = load i64, ptr %18, align 8
  %20 = mul i64 %17, %19
  %21 = getelementptr inbounds i8, ptr %13, i64 %20
  store ptr %21, ptr %6, align 8
  %22 = getelementptr inbounds %"class.cv::impl::(anonymous namespace)::CvtColorLoop_Invoker.17", ptr %11, i32 0, i32 3
  %23 = load ptr, ptr %22, align 8
  %24 = load ptr, ptr %4, align 8
  %25 = getelementptr inbounds %"class.cv::Range", ptr %24, i32 0, i32 0
  %26 = load i32, ptr %25, align 4
  %27 = sext i32 %26 to i64
  %28 = getelementptr inbounds %"class.cv::impl::(anonymous namespace)::CvtColorLoop_Invoker.17", ptr %11, i32 0, i32 4
  %29 = load i64, ptr %28, align 8
  %30 = mul i64 %27, %29
  %31 = getelementptr inbounds i8, ptr %23, i64 %30
  store ptr %31, ptr %7, align 8
  %32 = load ptr, ptr %4, align 8
  %33 = getelementptr inbounds %"class.cv::Range", ptr %32, i32 0, i32 0
  %34 = load i32, ptr %33, align 4
  store i32 %34, ptr %8, align 4
  br label %35

35:                                               ; preds = %49, %2
  %36 = load i32, ptr %8, align 4
  %37 = load ptr, ptr %4, align 8
  %38 = getelementptr inbounds %"class.cv::Range", ptr %37, i32 0, i32 1
  %39 = load i32, ptr %38, align 4
  %40 = icmp slt i32 %36, %39
  br i1 %40, label %41, label %64

41:                                               ; preds = %35
  %42 = getelementptr inbounds %"class.cv::impl::(anonymous namespace)::CvtColorLoop_Invoker.17", ptr %11, i32 0, i32 6
  %43 = load ptr, ptr %42, align 8
  %44 = load ptr, ptr %6, align 8
  %45 = load ptr, ptr %7, align 8
  %46 = getelementptr inbounds %"class.cv::impl::(anonymous namespace)::CvtColorLoop_Invoker.17", ptr %11, i32 0, i32 5
  %47 = load i32, ptr %46, align 8
  invoke void @_ZNK2cv3hal12cpu_baseline12_GLOBAL__N_110RGB5x52RGBclEPKhPhi(ptr noundef nonnull align 4 dereferenceable(12) %43, ptr noundef %44, ptr noundef %45, i32 noundef %47)
          to label %48 unwind label %60

48:                                               ; preds = %41
  br label %49

49:                                               ; preds = %48
  %50 = load i32, ptr %8, align 4
  %51 = add nsw i32 %50, 1
  store i32 %51, ptr %8, align 4
  %52 = getelementptr inbounds %"class.cv::impl::(anonymous namespace)::CvtColorLoop_Invoker.17", ptr %11, i32 0, i32 2
  %53 = load i64, ptr %52, align 8
  %54 = load ptr, ptr %6, align 8
  %55 = getelementptr inbounds i8, ptr %54, i64 %53
  store ptr %55, ptr %6, align 8
  %56 = getelementptr inbounds %"class.cv::impl::(anonymous namespace)::CvtColorLoop_Invoker.17", ptr %11, i32 0, i32 4
  %57 = load i64, ptr %56, align 8
  %58 = load ptr, ptr %7, align 8
  %59 = getelementptr inbounds i8, ptr %58, i64 %57
  store ptr %59, ptr %7, align 8
  br label %35, !llvm.loop !16

60:                                               ; preds = %41
  %61 = landingpad { ptr, i32 }
          cleanup
  %62 = extractvalue { ptr, i32 } %61, 0
  store ptr %62, ptr %9, align 8
  %63 = extractvalue { ptr, i32 } %61, 1
  store i32 %63, ptr %10, align 4
  call void @_ZN2cv5utils5trace7details6RegionD2Ev(ptr noundef nonnull align 8 dereferenceable(12) %5) #10
  br label %65

64:                                               ; preds = %35
  call void @_ZN2cv5utils5trace7details6RegionD2Ev(ptr noundef nonnull align 8 dereferenceable(12) %5) #10
  ret void

65:                                               ; preds = %60
  %66 = load ptr, ptr %9, align 8
  %67 = load i32, ptr %10, align 4
  %68 = insertvalue { ptr, i32 } poison, ptr %66, 0
  %69 = insertvalue { ptr, i32 } %68, i32 %67, 1
  resume { ptr, i32 } %69
}