; Function Attrs: mustprogress uwtable
define internal void @_ZNK2cv4impl12_GLOBAL__N_120CvtColorLoop_InvokerINS_3hal12cpu_baseline12_GLOBAL__N_110RGB5x52RGBEEclERKNS_5RangeE(ptr nocapture noundef nonnull readonly align 8 dereferenceable(56) %0, ptr nocapture noundef nonnull readonly align 4 dereferenceable(8) %1) unnamed_addr #0 align 2 personality ptr @__gxx_personality_v0 {
  %3 = alloca %"class.cv::utils::trace::details::Region", align 8
  call void @_ZN2cv5utils5trace7details6RegionC1ERKNS3_21LocationStaticStorageE(ptr noundef nonnull align 8 dereferenceable(12) %3, ptr noundef nonnull align 8 dereferenceable(32) @_ZZNK2cv4impl12_GLOBAL__N_120CvtColorLoop_InvokerINS_3hal12cpu_baseline12_GLOBAL__N_110RGB5x52RGBEEclERKNS_5RangeEE25__cv_trace_location_fn146)
  %4 = load i32, ptr %1, align 4
  %5 = getelementptr inbounds i8, ptr %0, i64 16
  %6 = getelementptr inbounds i8, ptr %0, i64 32
  %7 = getelementptr inbounds i8, ptr %1, i64 4
  %8 = load i32, ptr %7, align 4
  %9 = icmp slt i32 %4, %8
  br i1 %9, label %.lr.ph, label %._crit_edge

.lr.ph:                                           ; preds = %2
  %10 = getelementptr inbounds i8, ptr %0, i64 40
  %11 = getelementptr inbounds i8, ptr %0, i64 48
  %12 = load i32, ptr %10, align 8
  %13 = icmp sgt i32 %12, 0
  br i1 %13, label %.lr.ph.split.preheader, label %._crit_edge

.lr.ph.split.preheader:                           ; preds = %.lr.ph
  %14 = getelementptr inbounds i8, ptr %0, i64 24
  %15 = load ptr, ptr %14, align 8
  %16 = load i64, ptr %6, align 8
  %17 = sext i32 %4 to i64
  %18 = mul i64 %16, %17
  %19 = getelementptr inbounds i8, ptr %15, i64 %18
  %20 = getelementptr inbounds i8, ptr %0, i64 8
  %21 = load ptr, ptr %20, align 8
  %22 = load i64, ptr %5, align 8
  %23 = mul i64 %22, %17
  %24 = getelementptr inbounds i8, ptr %21, i64 %23
  br label %.lr.ph.split

.lr.ph.split:                                     ; preds = %.lr.ph.split.preheader, %_ZNK2cv3hal12cpu_baseline12_GLOBAL__N_110RGB5x52RGBclEPKhPhi.exit
  %.017 = phi i32 [ %90, %_ZNK2cv3hal12cpu_baseline12_GLOBAL__N_110RGB5x52RGBclEPKhPhi.exit ], [ %4, %.lr.ph.split.preheader ]
  %.01016 = phi ptr [ %94, %_ZNK2cv3hal12cpu_baseline12_GLOBAL__N_110RGB5x52RGBclEPKhPhi.exit ], [ %19, %.lr.ph.split.preheader ]
  %.01115 = phi ptr [ %92, %_ZNK2cv3hal12cpu_baseline12_GLOBAL__N_110RGB5x52RGBclEPKhPhi.exit ], [ %24, %.lr.ph.split.preheader ]
  %25 = load i32, ptr %10, align 8
  %26 = icmp sgt i32 %25, 0
  br i1 %26, label %.lr.ph.i, label %_ZNK2cv3hal12cpu_baseline12_GLOBAL__N_110RGB5x52RGBclEPKhPhi.exit

.lr.ph.i:                                         ; preds = %.lr.ph.split
  %27 = load ptr, ptr %11, align 8
  %28 = getelementptr inbounds i8, ptr %27, i64 8
  %29 = load i32, ptr %28, align 4
  %30 = getelementptr inbounds i8, ptr %27, i64 4
  %31 = load i32, ptr %30, align 4
  %32 = load i32, ptr %27, align 4
  %33 = icmp eq i32 %29, 6
  %34 = sext i32 %31 to i64
  %35 = xor i32 %31, 2
  %36 = sext i32 %35 to i64
  %37 = icmp eq i32 %32, 4
  %38 = sext i32 %32 to i64
  br i1 %33, label %.lr.ph.split.us.i, label %.lr.ph.split.i

.lr.ph.split.us.i:                                ; preds = %.lr.ph.i
  br i1 %37, label %.lr.ph.split.us.split.us.i, label %.lr.ph.split.us.split.i

.lr.ph.split.us.split.us.i:                       ; preds = %.lr.ph.split.us.i, %.lr.ph.split.us.split.us.i
  %.02732.us.us.i = phi ptr [ %50, %.lr.ph.split.us.split.us.i ], [ %.01115, %.lr.ph.split.us.i ]
  %.02831.us.us.i = phi ptr [ %51, %.lr.ph.split.us.split.us.i ], [ %.01016, %.lr.ph.split.us.i ]
  %.02930.us.us.i = phi i32 [ %49, %.lr.ph.split.us.split.us.i ], [ 0, %.lr.ph.split.us.i ]
  %39 = load i16, ptr %.02732.us.us.i, align 2
  %.tr.us.us.i = trunc i16 %39 to i8
  %40 = shl i8 %.tr.us.us.i, 3
  %41 = lshr i16 %39, 3
  %42 = trunc i16 %41 to i8
  %43 = and i8 %42, -4
  %44 = lshr i16 %39, 8
  %.025.in.us.us.i = trunc nuw i16 %44 to i8
  %.025.us.us.i = and i8 %.025.in.us.us.i, -8
  %45 = getelementptr inbounds i8, ptr %.02831.us.us.i, i64 %34
  store i8 %40, ptr %45, align 1
  %46 = getelementptr inbounds i8, ptr %.02831.us.us.i, i64 1
  store i8 %43, ptr %46, align 1
  %47 = getelementptr inbounds i8, ptr %.02831.us.us.i, i64 %36
  store i8 %.025.us.us.i, ptr %47, align 1
  %48 = getelementptr inbounds i8, ptr %.02831.us.us.i, i64 3
  store i8 -1, ptr %48, align 1
  %49 = add nuw nsw i32 %.02930.us.us.i, 1
  %50 = getelementptr inbounds i8, ptr %.02732.us.us.i, i64 2
  %51 = getelementptr inbounds i8, ptr %.02831.us.us.i, i64 %38
  %exitcond44.not.i = icmp eq i32 %49, %25
  br i1 %exitcond44.not.i, label %_ZNK2cv3hal12cpu_baseline12_GLOBAL__N_110RGB5x52RGBclEPKhPhi.exit, label %.lr.ph.split.us.split.us.i, !llvm.loop !64

.lr.ph.split.us.split.i:                          ; preds = %.lr.ph.split.us.i, %.lr.ph.split.us.split.i
  %.02732.us.i = phi ptr [ %62, %.lr.ph.split.us.split.i ], [ %.01115, %.lr.ph.split.us.i ]
  %.02831.us.i = phi ptr [ %63, %.lr.ph.split.us.split.i ], [ %.01016, %.lr.ph.split.us.i ]
  %.02930.us.i = phi i32 [ %61, %.lr.ph.split.us.split.i ], [ 0, %.lr.ph.split.us.i ]
  %52 = load i16, ptr %.02732.us.i, align 2
  %.tr.us.i = trunc i16 %52 to i8
  %53 = shl i8 %.tr.us.i, 3
  %54 = lshr i16 %52, 3
  %55 = trunc i16 %54 to i8
  %56 = and i8 %55, -4
  %57 = lshr i16 %52, 8
  %.025.in.us.i = trunc nuw i16 %57 to i8
  %.025.us.i = and i8 %.025.in.us.i, -8
  %58 = getelementptr inbounds i8, ptr %.02831.us.i, i64 %34
  store i8 %53, ptr %58, align 1
  %59 = getelementptr inbounds i8, ptr %.02831.us.i, i64 1
  store i8 %56, ptr %59, align 1
  %60 = getelementptr inbounds i8, ptr %.02831.us.i, i64 %36
  store i8 %.025.us.i, ptr %60, align 1
  %61 = add nuw nsw i32 %.02930.us.i, 1
  %62 = getelementptr inbounds i8, ptr %.02732.us.i, i64 2
  %63 = getelementptr inbounds i8, ptr %.02831.us.i, i64 %38
  %exitcond43.not.i = icmp eq i32 %61, %25
  br i1 %exitcond43.not.i, label %_ZNK2cv3hal12cpu_baseline12_GLOBAL__N_110RGB5x52RGBclEPKhPhi.exit, label %.lr.ph.split.us.split.i, !llvm.loop !64

.lr.ph.split.i:                                   ; preds = %.lr.ph.i
  br i1 %37, label %.lr.ph.split.split.us.i, label %.lr.ph.split.split.i

.lr.ph.split.split.us.i:                          ; preds = %.lr.ph.split.i, %.lr.ph.split.split.us.i
  %.02732.us33.i = phi ptr [ %76, %.lr.ph.split.split.us.i ], [ %.01115, %.lr.ph.split.i ]
  %.02831.us34.i = phi ptr [ %77, %.lr.ph.split.split.us.i ], [ %.01016, %.lr.ph.split.i ]
  %.02930.us35.i = phi i32 [ %75, %.lr.ph.split.split.us.i ], [ 0, %.lr.ph.split.i ]
  %64 = load i16, ptr %.02732.us33.i, align 2
  %.tr.us36.i = trunc i16 %64 to i8
  %65 = shl i8 %.tr.us36.i, 3
  %66 = lshr i16 %64, 2
  %67 = trunc i16 %66 to i8
  %68 = and i8 %67, -8
  %69 = lshr i16 %64, 7
  %.lobit.us.i = ashr i16 %64, 15
  %70 = trunc nsw i16 %.lobit.us.i to i8
  %.025.in.us37.i = trunc i16 %69 to i8
  %.025.us38.i = and i8 %.025.in.us37.i, -8
  %71 = getelementptr inbounds i8, ptr %.02831.us34.i, i64 %34
  store i8 %65, ptr %71, align 1
  %72 = getelementptr inbounds i8, ptr %.02831.us34.i, i64 1
  store i8 %68, ptr %72, align 1
  %73 = getelementptr inbounds i8, ptr %.02831.us34.i, i64 %36
  store i8 %.025.us38.i, ptr %73, align 1
  %74 = getelementptr inbounds i8, ptr %.02831.us34.i, i64 3
  store i8 %70, ptr %74, align 1
  %75 = add nuw nsw i32 %.02930.us35.i, 1
  %76 = getelementptr inbounds i8, ptr %.02732.us33.i, i64 2
  %77 = getelementptr inbounds i8, ptr %.02831.us34.i, i64 %38
  %exitcond42.not.i = icmp eq i32 %75, %25
  br i1 %exitcond42.not.i, label %_ZNK2cv3hal12cpu_baseline12_GLOBAL__N_110RGB5x52RGBclEPKhPhi.exit, label %.lr.ph.split.split.us.i, !llvm.loop !64

.lr.ph.split.split.i:                             ; preds = %.lr.ph.split.i, %.lr.ph.split.split.i
  %.02732.i = phi ptr [ %88, %.lr.ph.split.split.i ], [ %.01115, %.lr.ph.split.i ]
  %.02831.i = phi ptr [ %89, %.lr.ph.split.split.i ], [ %.01016, %.lr.ph.split.i ]
  %.02930.i = phi i32 [ %87, %.lr.ph.split.split.i ], [ 0, %.lr.ph.split.i ]
  %78 = load i16, ptr %.02732.i, align 2
  %.tr.i = trunc i16 %78 to i8
  %79 = shl i8 %.tr.i, 3
  %80 = lshr i16 %78, 2
  %81 = trunc i16 %80 to i8
  %82 = and i8 %81, -8
  %83 = lshr i16 %78, 7
  %.025.in.i = trunc i16 %83 to i8
  %.025.i = and i8 %.025.in.i, -8
  %84 = getelementptr inbounds i8, ptr %.02831.i, i64 %34
  store i8 %79, ptr %84, align 1
  %85 = getelementptr inbounds i8, ptr %.02831.i, i64 1
  store i8 %82, ptr %85, align 1
  %86 = getelementptr inbounds i8, ptr %.02831.i, i64 %36
  store i8 %.025.i, ptr %86, align 1
  %87 = add nuw nsw i32 %.02930.i, 1
  %88 = getelementptr inbounds i8, ptr %.02732.i, i64 2
  %89 = getelementptr inbounds i8, ptr %.02831.i, i64 %38
  %exitcond.not.i = icmp eq i32 %87, %25
  br i1 %exitcond.not.i, label %_ZNK2cv3hal12cpu_baseline12_GLOBAL__N_110RGB5x52RGBclEPKhPhi.exit, label %.lr.ph.split.split.i, !llvm.loop !64

_ZNK2cv3hal12cpu_baseline12_GLOBAL__N_110RGB5x52RGBclEPKhPhi.exit: ; preds = %.lr.ph.split.split.i, %.lr.ph.split.split.us.i, %.lr.ph.split.us.split.i, %.lr.ph.split.us.split.us.i, %.lr.ph.split
  %90 = add nsw i32 %.017, 1
  %91 = load i64, ptr %5, align 8
  %92 = getelementptr inbounds i8, ptr %.01115, i64 %91
  %93 = load i64, ptr %6, align 8
  %94 = getelementptr inbounds i8, ptr %.01016, i64 %93
  %95 = load i32, ptr %7, align 4
  %96 = icmp slt i32 %90, %95
  br i1 %96, label %.lr.ph.split, label %._crit_edge, !llvm.loop !65

._crit_edge:                                      ; preds = %_ZNK2cv3hal12cpu_baseline12_GLOBAL__N_110RGB5x52RGBclEPKhPhi.exit, %.lr.ph, %2
  %97 = getelementptr inbounds i8, ptr %3, i64 8
  %98 = load i32, ptr %97, align 8
  %.not.i = icmp eq i32 %98, 0
  br i1 %.not.i, label %_ZN2cv5utils5trace7details6RegionD2Ev.exit, label %99

99:                                               ; preds = %._crit_edge
  invoke void @_ZN2cv5utils5trace7details6Region7destroyEv(ptr noundef nonnull align 8 dereferenceable(12) %3)
          to label %_ZN2cv5utils5trace7details6RegionD2Ev.exit unwind label %100

100:                                              ; preds = %99
  %101 = landingpad { ptr, i32 }
          catch ptr null
  %102 = extractvalue { ptr, i32 } %101, 0
  call void @__clang_call_terminate(ptr %102) #13
  unreachable

_ZN2cv5utils5trace7details6RegionD2Ev.exit:       ; preds = %._crit_edge, %99
  ret void
}